target datalayout = "e-m:e-p270:32:32-p271:32:32-p272:64:64-i64:64-i128:128-f80:128-n8:16:32:64-S128"
target triple = "x86_64-pc-linux-gnu"

%class.LIR_Opr = type { i64 }
%class.PhiResolverState = type { %class.GrowableArray, %class.GrowableArray, %class.GrowableArray }
%class.GrowableArray = type { %class.GrowableArrayWithAllocator, %class.GrowableArrayMetadata }
%class.GrowableArrayWithAllocator = type { %class.GrowableArrayView }
%class.GrowableArrayView = type { %class.GrowableArrayBase, ptr }
%class.GrowableArrayBase = type { i32, i32 }
%class.GrowableArrayMetadata = type { i64 }
%class.LIRGenerator = type { %class.InstructionVisitor, %class.BlockClosure, ptr, ptr, %class.PhiResolverState, ptr, i32, %class.BitMap2D, ptr, %class.GrowableArray.0, %class.GrowableArray.3, %class.GrowableArray.6, ptr }
%class.InstructionVisitor = type { ptr }
%class.BlockClosure = type { ptr }
%class.BitMap2D = type { %class.ResourceBitMap, i64 }
%class.ResourceBitMap = type { %class.GrowableBitMap }
%class.GrowableBitMap = type { %class.BitMap }
%class.BitMap = type { ptr, i64 }
%class.GrowableArray.0 = type { %class.GrowableArrayWithAllocator.1, %class.GrowableArrayMetadata }
%class.GrowableArrayWithAllocator.1 = type { %class.GrowableArrayView.2 }
%class.GrowableArrayView.2 = type { %class.GrowableArrayBase, ptr }
%class.GrowableArray.3 = type { %class.GrowableArrayWithAllocator.4, %class.GrowableArrayMetadata }
%class.GrowableArrayWithAllocator.4 = type { %class.GrowableArrayView.5 }
%class.GrowableArrayView.5 = type { %class.GrowableArrayBase, ptr }
%class.GrowableArray.6 = type { %class.GrowableArrayWithAllocator.7, %class.GrowableArrayMetadata }
%class.GrowableArrayWithAllocator.7 = type { %class.GrowableArrayView.8 }
%class.GrowableArrayView.8 = type { %class.GrowableArrayBase, ptr }
%class.LIRAccess = type { ptr, i64, %class.LIRAddressOpr, %class.LIRAddressOpr, i8, %class.LIR_Opr, ptr, ptr }
%class.LIRAddressOpr = type { ptr, %class.LIR_Opr }

; Function Attrs: mustprogress nounwind uwtable
define linkonce_odr hidden noundef zeroext i1 @_Z17is_reference_type9BasicTypeb(i8 noundef zeroext %0, i1 noundef zeroext %1) #1 comdat {
  %3 = alloca i8, align 1
  %4 = alloca i8, align 1
  store i8 %0, ptr %3, align 1
  %5 = zext i1 %1 to i8
  store i8 %5, ptr %4, align 1
  %6 = load i8, ptr %3, align 1
  %7 = zext i8 %6 to i32
  %8 = icmp eq i32 %7, 12
  br i1 %8, label %22, label %9

9:                                                ; preds = %2
  %10 = load i8, ptr %3, align 1
  %11 = zext i8 %10 to i32
  %12 = icmp eq i32 %11, 13
  br i1 %12, label %22, label %13

13:                                               ; preds = %9
  %14 = load i8, ptr %4, align 1
  %15 = trunc i8 %14 to i1
  br i1 %15, label %16, label %20

16:                                               ; preds = %13
  %17 = load i8, ptr %3, align 1
  %18 = zext i8 %17 to i32
  %19 = icmp eq i32 %18, 16
  br label %20

20:                                               ; preds = %16, %13
  %21 = phi i1 [ false, %13 ], [ %19, %16 ]
  br label %22

22:                                               ; preds = %20, %9, %2
  %23 = phi i1 [ true, %9 ], [ true, %2 ], [ %21, %20 ]
  ret i1 %23
}

; Function Attrs: mustprogress nounwind uwtable
define linkonce_odr hidden void @_ZN13LIRAddressOprC2ERKS_(ptr noundef nonnull align 8 dereferenceable(16) %0, ptr noundef nonnull align 8 dereferenceable(16) %1) unnamed_addr #1 comdat align 2 {
  %3 = alloca ptr, align 8
  %4 = alloca ptr, align 8
  store ptr %0, ptr %3, align 8
  store ptr %1, ptr %4, align 8
  %5 = load ptr, ptr %3, align 8
  %6 = getelementptr inbounds %class.LIRAddressOpr, ptr %5, i32 0, i32 0
  %7 = load ptr, ptr %4, align 8
  %8 = getelementptr inbounds %class.LIRAddressOpr, ptr %7, i32 0, i32 0
  %9 = load ptr, ptr %8, align 8
  store ptr %9, ptr %6, align 8
  %10 = getelementptr inbounds %class.LIRAddressOpr, ptr %5, i32 0, i32 1
  %11 = load ptr, ptr %4, align 8
  %12 = getelementptr inbounds %class.LIRAddressOpr, ptr %11, i32 0, i32 1
  call void @llvm.memcpy.p0.p0.i64(ptr align 8 %10, ptr align 8 %12, i64 8, i1 false)
  ret void
}

; Function Attrs: mustprogress nounwind uwtable
define linkonce_odr hidden noundef i64 @_ZN14AccessInternal15decorator_fixupEm9BasicType(i64 noundef %0, i8 noundef zeroext %1) #1 comdat {
  %3 = alloca i64, align 8
  %4 = alloca i8, align 1
  %5 = alloca i64, align 8
  %6 = alloca i64, align 8
  %7 = alloca i64, align 8
  %8 = alloca i64, align 8
  store i64 %0, ptr %3, align 8
  store i8 %1, ptr %4, align 1
  %9 = load i8, ptr %4, align 1
  %10 = call noundef zeroext i1 @_Z17is_reference_type9BasicTypeb(i8 noundef zeroext %9, i1 noundef zeroext false)
  %11 = select i1 %10, i64 4, i64 0
  %12 = load i64, ptr %3, align 8
  %13 = or i64 %12, %11
  store i64 %13, ptr %3, align 8
  store i64 %13, ptr %5, align 8
  %14 = load i64, ptr %5, align 8
  %15 = load i64, ptr %5, align 8
  %16 = and i64 245760, %15
  %17 = icmp eq i64 %16, 0
  br i1 %17, label %18, label %22

18:                                               ; preds = %2
  %19 = load i64, ptr %3, align 8
  %20 = and i64 4, %19
  %21 = icmp ne i64 %20, 0
  br label %22

22:                                               ; preds = %18, %2
  %23 = phi i1 [ false, %2 ], [ %21, %18 ]
  %24 = select i1 %23, i64 16384, i64 0
  %25 = or i64 %14, %24
  store i64 %25, ptr %6, align 8
  %26 = load i64, ptr %6, align 8
  %27 = load i64, ptr %6, align 8
  %28 = and i64 1984, %27
  %29 = icmp eq i64 %28, 0
  %30 = select i1 %29, i64 64, i64 0
  %31 = or i64 %26, %30
  store i64 %31, ptr %7, align 8
  %32 = load i64, ptr %7, align 8
  %33 = load i64, ptr %7, align 8
  %34 = and i64 14336, %33
  %35 = icmp eq i64 %34, 0
  %36 = select i1 %35, i64 8192, i64 0
  %37 = or i64 %32, %36
  store i64 %37, ptr %8, align 8
  %38 = load i64, ptr %8, align 8
  ret i64 %38
}

; Function Attrs: mustprogress nounwind uwtable
define linkonce_odr hidden void @_ZN7LIR_OprC2Ev(ptr noundef nonnull align 8 dereferenceable(8) %0) unnamed_addr #1 comdat align 2 {
  %2 = alloca ptr, align 8
  store ptr %0, ptr %2, align 8
  %3 = load ptr, ptr %2, align 8
  %4 = getelementptr inbounds %class.LIR_Opr, ptr %3, i32 0, i32 0
  store i64 0, ptr %4, align 8
  ret void
}

; Function Attrs: mustprogress nounwind uwtable
define linkonce_odr hidden noundef zeroext i1 @_ZNK9LIRAccess6is_rawEv(ptr noundef nonnull align 8 dereferenceable(80) %0) #1 comdat align 2 {
  %2 = alloca ptr, align 8
  store ptr %0, ptr %2, align 8
  %3 = load ptr, ptr %2, align 8
  %4 = getelementptr inbounds %class.LIRAccess, ptr %3, i32 0, i32 1
  %5 = load i64, ptr %4, align 8
  %6 = and i64 %5, 2048
  %7 = icmp ne i64 %6, 0
  ret i1 %7
}

; Function Attrs: mustprogress nounwind uwtable
define linkonce_odr hidden void @_ZN9LIRAccessC2EP12LIRGeneratorm13LIRAddressOprS2_9BasicTypeP12CodeEmitInfoS5_(ptr noundef nonnull align 8 dereferenceable(80) %0, ptr noundef %1, i64 noundef %2, ptr noundef %3, ptr noundef %4, i8 noundef zeroext %5, ptr noundef %6, ptr noundef %7) unnamed_addr #1 comdat align 2 {
  %9 = alloca ptr, align 8
  %10 = alloca ptr, align 8
  %11 = alloca i64, align 8
  %12 = alloca ptr, align 8
  %13 = alloca ptr, align 8
  %14 = alloca i8, align 1
  %15 = alloca ptr, align 8
  %16 = alloca ptr, align 8
  store ptr %0, ptr %9, align 8
  store ptr %1, ptr %10, align 8
  store i64 %2, ptr %11, align 8
  store ptr %3, ptr %12, align 8
  store ptr %4, ptr %13, align 8
  store i8 %5, ptr %14, align 1
  store ptr %6, ptr %15, align 8
  store ptr %7, ptr %16, align 8
  %17 = load ptr, ptr %9, align 8
  %18 = getelementptr inbounds %class.LIRAccess, ptr %17, i32 0, i32 0
  %19 = load ptr, ptr %10, align 8
  store ptr %19, ptr %18, align 8
  %20 = getelementptr inbounds %class.LIRAccess, ptr %17, i32 0, i32 1
  %21 = load i64, ptr %11, align 8
  %22 = load i8, ptr %14, align 1
  %23 = call noundef i64 @_ZN14AccessInternal15decorator_fixupEm9BasicType(i64 noundef %21, i8 noundef zeroext %22)
  store i64 %23, ptr %20, align 8
  %24 = getelementptr inbounds %class.LIRAccess, ptr %17, i32 0, i32 2
  call void @_ZN13LIRAddressOprC2ERKS_(ptr noundef nonnull align 8 dereferenceable(16) %24, ptr noundef nonnull align 8 dereferenceable(16) %3)
  %25 = getelementptr inbounds %class.LIRAccess, ptr %17, i32 0, i32 3
  call void @_ZN13LIRAddressOprC2ERKS_(ptr noundef nonnull align 8 dereferenceable(16) %25, ptr noundef nonnull align 8 dereferenceable(16) %4)
  %26 = getelementptr inbounds %class.LIRAccess, ptr %17, i32 0, i32 4
  %27 = load i8, ptr %14, align 1
  store i8 %27, ptr %26, align 8
  %28 = getelementptr inbounds %class.LIRAccess, ptr %17, i32 0, i32 5
  call void @_ZN7LIR_OprC2Ev(ptr noundef nonnull align 8 dereferenceable(8) %28)
  %29 = getelementptr inbounds %class.LIRAccess, ptr %17, i32 0, i32 6
  %30 = load ptr, ptr %15, align 8
  store ptr %30, ptr %29, align 8
  %31 = getelementptr inbounds %class.LIRAccess, ptr %17, i32 0, i32 7
  %32 = load ptr, ptr %16, align 8
  store ptr %32, ptr %31, align 8
  ret void
}

; Function Attrs: mustprogress nounwind uwtable
define linkonce_odr hidden void @_ZN13LIRAddressOprC2ER7LIRItem(ptr noundef nonnull align 8 dereferenceable(16) %0, ptr noundef nonnull align 8 dereferenceable(40) %1) unnamed_addr #1 comdat align 2 {
  %3 = alloca ptr, align 8
  %4 = alloca ptr, align 8
  store ptr %0, ptr %3, align 8
  store ptr %1, ptr %4, align 8
  %5 = load ptr, ptr %3, align 8
  %6 = getelementptr inbounds %class.LIRAddressOpr, ptr %5, i32 0, i32 0
  %7 = load ptr, ptr %4, align 8
  store ptr %7, ptr %6, align 8
  %8 = getelementptr inbounds %class.LIRAddressOpr, ptr %5, i32 0, i32 1
  call void @_ZN7LIR_OprC2Ev(ptr noundef nonnull align 8 dereferenceable(8) %8)
  ret void
}

; Function Attrs: mustprogress nounwind uwtable
define hidden i64 @_ZN12LIRGenerator21access_atomic_xchg_atEm9BasicTypeR7LIRItemS2_S2_(ptr noundef nonnull align 8 dereferenceable(232) %0, i64 noundef %1, i8 noundef zeroext %2, ptr noundef nonnull align 8 dereferenceable(40) %3, ptr noundef nonnull align 8 dereferenceable(40) %4, ptr noundef nonnull align 8 dereferenceable(40) %5) #1 align 2 {
  %7 = alloca %class.LIR_Opr, align 8
  %8 = alloca ptr, align 8
  %9 = alloca i64, align 8
  %10 = alloca i8, align 1
  %11 = alloca ptr, align 8
  %12 = alloca ptr, align 8
  %13 = alloca ptr, align 8
  %14 = alloca %class.LIRAccess, align 8
  %15 = alloca %class.LIRAddressOpr, align 8
  %16 = alloca %class.LIRAddressOpr, align 8
  store ptr %0, ptr %8, align 8
  store i64 %1, ptr %9, align 8
  store i8 %2, ptr %10, align 1
  store ptr %3, ptr %11, align 8
  store ptr %4, ptr %12, align 8
  store ptr %5, ptr %13, align 8
  %17 = load ptr, ptr %8, align 8
  %18 = load i64, ptr %9, align 8
  %19 = or i64 %18, 536870912
  store i64 %19, ptr %9, align 8
  %20 = load i64, ptr %9, align 8
  %21 = or i64 %20, 1073741824
  store i64 %21, ptr %9, align 8
  %22 = load i64, ptr %9, align 8
  %23 = and i64 %22, 1984
  %24 = icmp eq i64 %23, 0
  %25 = select i1 %24, i64 1024, i64 0
  %26 = load i64, ptr %9, align 8
  %27 = or i64 %26, %25
  store i64 %27, ptr %9, align 8
  %28 = load i64, ptr %9, align 8
  %29 = load ptr, ptr %11, align 8
  call void @_ZN13LIRAddressOprC2ER7LIRItem(ptr noundef nonnull align 8 dereferenceable(16) %15, ptr noundef nonnull align 8 dereferenceable(40) %29)
  %30 = load ptr, ptr %12, align 8
  call void @_ZN13LIRAddressOprC2ER7LIRItem(ptr noundef nonnull align 8 dereferenceable(16) %16, ptr noundef nonnull align 8 dereferenceable(40) %30)
  %31 = load i8, ptr %10, align 1
  call void @_ZN9LIRAccessC2EP12LIRGeneratorm13LIRAddressOprS2_9BasicTypeP12CodeEmitInfoS5_(ptr noundef nonnull align 8 dereferenceable(80) %14, ptr noundef %17, i64 noundef %28, ptr noundef %15, ptr noundef %16, i8 noundef zeroext %31, ptr noundef null, ptr noundef null)
  %32 = call noundef zeroext i1 @_ZNK9LIRAccess6is_rawEv(ptr noundef nonnull align 8 dereferenceable(80) %14)
  br i1 %32, label %33, label %39

33:                                               ; preds = %6
  %34 = getelementptr inbounds %class.LIRGenerator, ptr %17, i32 0, i32 12
  %35 = load ptr, ptr %34, align 8
  %36 = load ptr, ptr %13, align 8
  %37 = call i64 @_ZN12BarrierSetC114atomic_xchg_atER9LIRAccessR7LIRItem(ptr noundef nonnull align 8 dereferenceable(8) %35, ptr noundef nonnull align 8 dereferenceable(80) %14, ptr noundef nonnull align 8 dereferenceable(40) %36)
  %38 = getelementptr inbounds %class.LIR_Opr, ptr %7, i32 0, i32 0
  store i64 %37, ptr %38, align 8
  br label %48

39:                                               ; preds = %6
  %40 = getelementptr inbounds %class.LIRGenerator, ptr %17, i32 0, i32 12
  %41 = load ptr, ptr %40, align 8
  %42 = load ptr, ptr %13, align 8
  %43 = load ptr, ptr %41, align 8
  %44 = getelementptr inbounds ptr, ptr %43, i64 11
  %45 = load ptr, ptr %44, align 8
  %46 = call i64 %45(ptr noundef nonnull align 8 dereferenceable(8) %41, ptr noundef nonnull align 8 dereferenceable(80) %14, ptr noundef nonnull align 8 dereferenceable(40) %42)
  %47 = getelementptr inbounds %class.LIR_Opr, ptr %7, i32 0, i32 0
  store i64 %46, ptr %47, align 8
  br label %48

48:                                               ; preds = %39, %33
  %49 = getelementptr inbounds %class.LIR_Opr, ptr %7, i32 0, i32 0
  %50 = load i64, ptr %49, align 8
  ret i64 %50
}